#include <math.h>
#include <stdio.h>
#include <stdlib.h>
#include <string.h>

int main()
{
    int A[100][100],B[100][100],C[100][100];
    int i,j,k;
    int x1,x2,y1,y2;
    scanf("%d %d",&x1,&y1);
    for(i=0;i<x1;i++)
       for(j=0;j<y1;j++)
            scanf("%d",&A[i][j]);
    scanf("%d %d",&x2,&y2);
    for(i=0;i<x2;i++)
       for(j=0;j<y2;j++)
            scanf("%d",&B[i][j]);
    for(i=0;i<x1;i++)
    {
       for(j=0;j<y2;j++)
       {
               C[i][j]=0;
               for(k=0;k<y1;k++)
               C[i][j]=A[i][k]*B[k][j]+C[i][j];
               if(j==0) printf("%d",C[i][j]);
               else     printf(" %d",C[i][j]);
       }
       printf("\n");
    }
    getchar();
    getchar();
}
             
